; ModuleID = '43/1435.c'
source_filename = "43/1435.c"
target datalayout = "e-m:e-p270:32:32-p271:32:32-p272:64:64-i64:64-f80:128-n8:16:32:64-S128"
target triple = "x86_64-pc-linux-gnu"

@.str = private unnamed_addr constant [3 x i8] c"%d\00", align 1
@.str.1 = private unnamed_addr constant [7 x i8] c"%d %d\0A\00", align 1

; Function Attrs: noinline nounwind uwtable
define dso_local void @main() #0 {
  %1 = alloca i32, align 4
  %2 = alloca i32, align 4
  %3 = alloca i32, align 4
  %4 = alloca i32, align 4
  %5 = alloca i32, align 4
  %6 = call i32 (i8*, ...) @__isoc99_scanf(i8* getelementptr inbounds ([3 x i8], [3 x i8]* @.str, i64 0, i64 0), i32* %1)
  store i32 3, i32* %2, align 4
  br label %7

7:                                                ; preds = %74, %0
  %8 = load i32, i32* %2, align 4
  %9 = load i32, i32* %1, align 4
  %10 = icmp slt i32 %8, %9
  br i1 %10, label %11, label %77

11:                                               ; preds = %7
  store i32 2, i32* %4, align 4
  br label %12

12:                                               ; preds = %26, %11
  %13 = load i32, i32* %4, align 4
  %14 = sitofp i32 %13 to double
  %15 = load i32, i32* %2, align 4
  %16 = sitofp i32 %15 to double
  %17 = call double @sqrt(double %16) #3
  %18 = fcmp ole double %14, %17
  br i1 %18, label %19, label %29

19:                                               ; preds = %12
  %20 = load i32, i32* %2, align 4
  %21 = load i32, i32* %4, align 4
  %22 = srem i32 %20, %21
  %23 = icmp eq i32 %22, 0
  br i1 %23, label %24, label %25

24:                                               ; preds = %19
  br label %29

25:                                               ; preds = %19
  br label %26

26:                                               ; preds = %25
  %27 = load i32, i32* %4, align 4
  %28 = add nsw i32 %27, 1
  store i32 %28, i32* %4, align 4
  br label %12

29:                                               ; preds = %24, %12
  %30 = load i32, i32* %4, align 4
  %31 = sitofp i32 %30 to double
  %32 = load i32, i32* %2, align 4
  %33 = sitofp i32 %32 to double
  %34 = call double @sqrt(double %33) #3
  %35 = fcmp ogt double %31, %34
  br i1 %35, label %36, label %73

36:                                               ; preds = %29
  %37 = load i32, i32* %1, align 4
  %38 = load i32, i32* %2, align 4
  %39 = sub nsw i32 %37, %38
  store i32 %39, i32* %3, align 4
  store i32 2, i32* %5, align 4
  br label %40

40:                                               ; preds = %54, %36
  %41 = load i32, i32* %5, align 4
  %42 = sitofp i32 %41 to double
  %43 = load i32, i32* %3, align 4
  %44 = sitofp i32 %43 to double
  %45 = call double @sqrt(double %44) #3
  %46 = fcmp ole double %42, %45
  br i1 %46, label %47, label %57

47:                                               ; preds = %40
  %48 = load i32, i32* %3, align 4
  %49 = load i32, i32* %5, align 4
  %50 = srem i32 %48, %49
  %51 = icmp eq i32 %50, 0
  br i1 %51, label %52, label %53

52:                                               ; preds = %47
  br label %57

53:                                               ; preds = %47
  br label %54

54:                                               ; preds = %53
  %55 = load i32, i32* %5, align 4
  %56 = add nsw i32 %55, 1
  store i32 %56, i32* %5, align 4
  br label %40

57:                                               ; preds = %52, %40
  %58 = load i32, i32* %5, align 4
  %59 = sitofp i32 %58 to double
  %60 = load i32, i32* %3, align 4
  %61 = sitofp i32 %60 to double
  %62 = call double @sqrt(double %61) #3
  %63 = fcmp ogt double %59, %62
  br i1 %63, label %64, label %72

64:                                               ; preds = %57
  %65 = load i32, i32* %2, align 4
  %66 = load i32, i32* %3, align 4
  %67 = icmp sle i32 %65, %66
  br i1 %67, label %68, label %72

68:                                               ; preds = %64
  %69 = load i32, i32* %2, align 4
  %70 = load i32, i32* %3, align 4
  %71 = call i32 (i8*, ...) @printf(i8* getelementptr inbounds ([7 x i8], [7 x i8]* @.str.1, i64 0, i64 0), i32 %69, i32 %70)
  br label %72

72:                                               ; preds = %68, %64, %57
  br label %73

73:                                               ; preds = %72, %29
  br label %74

74:                                               ; preds = %73
  %75 = load i32, i32* %2, align 4
  %76 = add nsw i32 %75, 1
  store i32 %76, i32* %2, align 4
  br label %7

77:                                               ; preds = %7
  ret void
}

declare dso_local i32 @__isoc99_scanf(i8*, ...) #1

; Function Attrs: nounwind
declare dso_local double @sqrt(double) #2

declare dso_local i32 @printf(i8*, ...) #1


!llvm.module.flags = !{!0}
!llvm.ident = !{!1}

!0 = !{i32 1, !"wchar_size", i32 4}
!1 = !{!"clang version 10.0.0-4ubuntu1 "}
